; ModuleID = '23/1135.c'
source_filename = "23/1135.c"
target datalayout = "e-m:e-p270:32:32-p271:32:32-p272:64:64-i64:64-f80:128-n8:16:32:64-S128"
target triple = "x86_64-pc-linux-gnu"

; Function Attrs: noinline nounwind uwtable
define dso_local void @main() #0 {
  %1 = alloca [100 x i8], align 16
  %2 = alloca [100 x i8], align 16
  %3 = alloca [100 x i8], align 16
  %4 = alloca i32, align 4
  %5 = alloca i32, align 4
  %6 = alloca i32, align 4
  %7 = alloca i32, align 4
  %8 = alloca i32, align 4
  %9 = alloca i8*, align 8
  %10 = alloca i8*, align 8
  store i32 0, i32* %4, align 4
  store i32 0, i32* %7, align 4
  %11 = getelementptr inbounds [100 x i8], [100 x i8]* %1, i64 0, i64 0
  %12 = call i32 (i8*, ...) bitcast (i32 (...)* @gets to i32 (i8*, ...)*)(i8* %11)
  %13 = getelementptr inbounds [100 x i8], [100 x i8]* %2, i64 0, i64 0
  store i8 32, i8* %13, align 16
  %14 = getelementptr inbounds [100 x i8], [100 x i8]* %2, i64 0, i64 1
  store i8 0, i8* %14, align 1
  %15 = getelementptr inbounds [100 x i8], [100 x i8]* %2, i64 0, i64 0
  %16 = getelementptr inbounds [100 x i8], [100 x i8]* %1, i64 0, i64 0
  %17 = call i8* @strcat(i8* %15, i8* %16) #4
  %18 = getelementptr inbounds [100 x i8], [100 x i8]* %2, i64 0, i64 0
  %19 = call i64 @strlen(i8* %18) #5
  %20 = trunc i64 %19 to i32
  store i32 %20, i32* %6, align 4
  %21 = load i32, i32* %6, align 4
  store i32 %21, i32* %8, align 4
  %22 = getelementptr inbounds [100 x i8], [100 x i8]* %3, i64 0, i64 0
  store i8* %22, i8** %10, align 8
  %23 = getelementptr inbounds [100 x i8], [100 x i8]* %2, i64 0, i64 0
  %24 = load i32, i32* %6, align 4
  %25 = sext i32 %24 to i64
  %26 = getelementptr inbounds i8, i8* %23, i64 %25
  %27 = getelementptr inbounds i8, i8* %26, i64 -1
  store i8* %27, i8** %9, align 8
  br label %28

28:                                               ; preds = %0, %79
  br label %29

29:                                               ; preds = %37, %28
  %30 = load i8*, i8** %9, align 8
  %31 = load i8, i8* %30, align 1
  %32 = sext i8 %31 to i32
  %33 = icmp ne i32 %32, 32
  br i1 %33, label %34, label %40

34:                                               ; preds = %29
  %35 = load i32, i32* %4, align 4
  %36 = add nsw i32 %35, 1
  store i32 %36, i32* %4, align 4
  br label %37

37:                                               ; preds = %34
  %38 = load i8*, i8** %9, align 8
  %39 = getelementptr inbounds i8, i8* %38, i32 -1
  store i8* %39, i8** %9, align 8
  br label %29

40:                                               ; preds = %29
  store i32 0, i32* %5, align 4
  br label %41

41:                                               ; preds = %53, %40
  %42 = load i32, i32* %5, align 4
  %43 = load i32, i32* %4, align 4
  %44 = icmp slt i32 %42, %43
  br i1 %44, label %45, label %58

45:                                               ; preds = %41
  %46 = load i8*, i8** %9, align 8
  %47 = load i32, i32* %5, align 4
  %48 = sext i32 %47 to i64
  %49 = getelementptr inbounds i8, i8* %46, i64 %48
  %50 = getelementptr inbounds i8, i8* %49, i64 1
  %51 = load i8, i8* %50, align 1
  %52 = load i8*, i8** %10, align 8
  store i8 %51, i8* %52, align 1
  br label %53

53:                                               ; preds = %45
  %54 = load i32, i32* %5, align 4
  %55 = add nsw i32 %54, 1
  store i32 %55, i32* %5, align 4
  %56 = load i8*, i8** %10, align 8
  %57 = getelementptr inbounds i8, i8* %56, i32 1
  store i8* %57, i8** %10, align 8
  br label %41

58:                                               ; preds = %41
  %59 = load i8*, i8** %10, align 8
  store i8 32, i8* %59, align 1
  %60 = load i8*, i8** %10, align 8
  %61 = getelementptr inbounds i8, i8* %60, i32 1
  store i8* %61, i8** %10, align 8
  %62 = load i32, i32* %7, align 4
  %63 = load i32, i32* %4, align 4
  %64 = add nsw i32 %62, %63
  %65 = add nsw i32 %64, 1
  store i32 %65, i32* %7, align 4
  %66 = load i32, i32* %8, align 4
  %67 = load i32, i32* %7, align 4
  %68 = sub nsw i32 %66, %67
  store i32 %68, i32* %6, align 4
  %69 = load i8*, i8** %9, align 8
  %70 = getelementptr inbounds [100 x i8], [100 x i8]* %2, i64 0, i64 0
  %71 = icmp eq i8* %69, %70
  br i1 %71, label %72, label %73

72:                                               ; preds = %58
  br label %80

73:                                               ; preds = %58
  %74 = getelementptr inbounds [100 x i8], [100 x i8]* %2, i64 0, i64 0
  %75 = load i32, i32* %6, align 4
  %76 = sext i32 %75 to i64
  %77 = getelementptr inbounds i8, i8* %74, i64 %76
  %78 = getelementptr inbounds i8, i8* %77, i64 -1
  store i8* %78, i8** %9, align 8
  store i32 0, i32* %4, align 4
  br label %79

79:                                               ; preds = %73
  br label %28

80:                                               ; preds = %72
  %81 = getelementptr inbounds [100 x i8], [100 x i8]* %2, i64 0, i64 0
  %82 = call i64 @strlen(i8* %81) #5
  %83 = trunc i64 %82 to i32
  store i32 %83, i32* %6, align 4
  %84 = getelementptr inbounds [100 x i8], [100 x i8]* %3, i64 0, i64 0
  store i8* %84, i8** %10, align 8
  %85 = load i8*, i8** %10, align 8
  %86 = load i32, i32* %6, align 4
  %87 = sext i32 %86 to i64
  %88 = getelementptr inbounds i8, i8* %85, i64 %87
  %89 = getelementptr inbounds i8, i8* %88, i64 -1
  store i8 0, i8* %89, align 1
  %90 = getelementptr inbounds [100 x i8], [100 x i8]* %3, i64 0, i64 0
  %91 = call i32 @puts(i8* %90)
  ret void
}

declare dso_local i32 @gets(...) #1

; Function Attrs: nounwind
declare dso_local i8* @strcat(i8*, i8*) #2

; Function Attrs: nounwind readonly
declare dso_local i64 @strlen(i8*) #3

declare dso_local i32 @puts(i8*) #1


!llvm.module.flags = !{!0}
!llvm.ident = !{!1}

!0 = !{i32 1, !"wchar_size", i32 4}
!1 = !{!"clang version 10.0.0-4ubuntu1 "}
